target datalayout = "e-m:e-p270:32:32-p271:32:32-p272:64:64-i64:64-i128:128-f80:128-n8:16:32:64-S128"
target triple = "x86_64-pc-linux-gnu"

%"class.absl::NoDestructor" = type { %"class.absl::NoDestructor<std::mersenne_twister_engine<unsigned long, 64, 312, 156, 31, 13043109905998158313, 29, 6148914691236517205, 17, 8202884508482404352, 37, 18444473444759240704, 43, 6364136223846793005>>::DirectImpl" }
%"class.absl::NoDestructor<std::mersenne_twister_engine<unsigned long, 64, 312, 156, 31, 13043109905998158313, 29, 6148914691236517205, 17, 8202884508482404352, 37, 18444473444759240704, 43, 6364136223846793005>>::DirectImpl" = type { %"class.std::mersenne_twister_engine" }
%"class.std::mersenne_twister_engine" = type { [312 x i64], i64 }
%class.anon = type { i8 }

@_ZZN4absl18container_internal13hash_internal12GetSharedRngEvE3rng = internal global %"class.absl::NoDestructor" zeroinitializer, align 8
@_ZGVZN4absl18container_internal13hash_internal12GetSharedRngEvE3rng = internal global i64 0, align 8

; Function Attrs: mustprogress nounwind uwtable
define linkonce_odr dso_local noundef ptr @_ZN4absl12NoDestructorISt23mersenne_twister_engineImLm64ELm312ELm156ELm31ELm13043109905998158313ELm29ELm6148914691236517205ELm17ELm8202884508482404352ELm37ELm18444473444759240704ELm43ELm6364136223846793005EEE10DirectImpl3getEv(ptr noundef nonnull align 8 dereferenceable(2504) %0) #4 comdat align 2 {
  %2 = alloca ptr, align 8
  store ptr %0, ptr %2, align 8, !tbaa !74
  %3 = load ptr, ptr %2, align 8
  %4 = getelementptr inbounds nuw %"class.absl::NoDestructor<std::mersenne_twister_engine<unsigned long, 64, 312, 156, 31, 13043109905998158313, 29, 6148914691236517205, 17, 8202884508482404352, 37, 18444473444759240704, 43, 6364136223846793005>>::DirectImpl", ptr %3, i32 0, i32 0
  ret ptr %4
}

; Function Attrs: mustprogress nounwind uwtable
define linkonce_odr dso_local void @_ZN4absl12NoDestructorISt23mersenne_twister_engineImLm64ELm312ELm156ELm31ELm13043109905998158313ELm29ELm6148914691236517205ELm17ELm8202884508482404352ELm37ELm18444473444759240704ELm43ELm6364136223846793005EEE10DirectImplC2IJS2_EEEDpOT_(ptr noundef nonnull align 8 dereferenceable(2504) %0, ptr noundef nonnull align 8 dereferenceable(2504) %1) unnamed_addr #4 comdat align 2 {
  %3 = alloca ptr, align 8
  %4 = alloca ptr, align 8
  store ptr %0, ptr %3, align 8, !tbaa !74
  store ptr %1, ptr %4, align 8, !tbaa !11
  %5 = load ptr, ptr %3, align 8
  %6 = getelementptr inbounds nuw %"class.absl::NoDestructor<std::mersenne_twister_engine<unsigned long, 64, 312, 156, 31, 13043109905998158313, 29, 6148914691236517205, 17, 8202884508482404352, 37, 18444473444759240704, 43, 6364136223846793005>>::DirectImpl", ptr %5, i32 0, i32 0
  %7 = load ptr, ptr %4, align 8, !tbaa !11
  call void @llvm.memcpy.p0.p0.i64(ptr align 8 %6, ptr align 8 %7, i64 2504, i1 false), !tbaa.struct !76
  ret void
}

; Function Attrs: mustprogress uwtable
define linkonce_odr dso_local noundef ptr @_ZN4absl12NoDestructorISt23mersenne_twister_engineImLm64ELm312ELm156ELm31ELm13043109905998158313ELm29ELm6148914691236517205ELm17ELm8202884508482404352ELm37ELm18444473444759240704ELm43ELm6364136223846793005EEE3getEv(ptr noundef nonnull align 8 dereferenceable(2504) %0) #0 comdat align 2 {
  %2 = alloca ptr, align 8
  store ptr %0, ptr %2, align 8, !tbaa !9
  %3 = load ptr, ptr %2, align 8
  %4 = getelementptr inbounds nuw %"class.absl::NoDestructor", ptr %3, i32 0, i32 0
  %5 = call noundef ptr @_ZN4absl12NoDestructorISt23mersenne_twister_engineImLm64ELm312ELm156ELm31ELm13043109905998158313ELm29ELm6148914691236517205ELm17ELm8202884508482404352ELm37ELm18444473444759240704ELm43ELm6364136223846793005EEE10DirectImpl3getEv(ptr noundef nonnull align 8 dereferenceable(2504) %4)
  ret ptr %5
}

; Function Attrs: mustprogress uwtable
define linkonce_odr dso_local void @_ZN4absl12NoDestructorISt23mersenne_twister_engineImLm64ELm312ELm156ELm31ELm13043109905998158313ELm29ELm6148914691236517205ELm17ELm8202884508482404352ELm37ELm18444473444759240704ELm43ELm6364136223846793005EEEC2EOS2_(ptr noundef nonnull align 8 dereferenceable(2504) %0, ptr noundef nonnull align 8 dereferenceable(2504) %1) unnamed_addr #0 comdat align 2 {
  %3 = alloca ptr, align 8
  %4 = alloca ptr, align 8
  store ptr %0, ptr %3, align 8, !tbaa !9
  store ptr %1, ptr %4, align 8, !tbaa !11
  %5 = load ptr, ptr %3, align 8
  %6 = getelementptr inbounds nuw %"class.absl::NoDestructor", ptr %5, i32 0, i32 0
  %7 = load ptr, ptr %4, align 8, !tbaa !11
  call void @_ZN4absl12NoDestructorISt23mersenne_twister_engineImLm64ELm312ELm156ELm31ELm13043109905998158313ELm29ELm6148914691236517205ELm17ELm8202884508482404352ELm37ELm18444473444759240704ELm43ELm6364136223846793005EEE10DirectImplC2IJS2_EEEDpOT_(ptr noundef nonnull align 8 dereferenceable(2504) %6, ptr noundef nonnull align 8 dereferenceable(2504) %7)
  ret void
}

; Function Attrs: mustprogress uwtable
define dso_local noundef ptr @_ZN4absl18container_internal13hash_internal12GetSharedRngEv() #0 personality ptr @__gxx_personality_v0 {
  %1 = alloca %"class.std::mersenne_twister_engine", align 8
  %2 = alloca %class.anon, align 1
  %3 = alloca ptr, align 8
  %4 = alloca i32, align 4
  %5 = load atomic i8, ptr @_ZGVZN4absl18container_internal13hash_internal12GetSharedRngEvE3rng acquire, align 8
  %6 = icmp eq i8 %5, 0
  br i1 %6, label %7, label %13, !prof !4

7:                                                ; preds = %0
  %8 = call i32 @__cxa_guard_acquire(ptr @_ZGVZN4absl18container_internal13hash_internal12GetSharedRngEvE3rng) #1
  %9 = icmp ne i32 %8, 0
  br i1 %9, label %10, label %13

10:                                               ; preds = %7
  call void @llvm.lifetime.start.p0(i64 2504, ptr %1) #1
  call void @llvm.lifetime.start.p0(i64 1, ptr %2) #1
  invoke void @"_ZZN4absl18container_internal13hash_internal12GetSharedRngEvENK3$_0clEv"(ptr dead_on_unwind writable sret(%"class.std::mersenne_twister_engine") align 8 %1, ptr noundef nonnull align 1 dereferenceable(1) %2)
          to label %11 unwind label %15

11:                                               ; preds = %10
  invoke void @_ZN4absl12NoDestructorISt23mersenne_twister_engineImLm64ELm312ELm156ELm31ELm13043109905998158313ELm29ELm6148914691236517205ELm17ELm8202884508482404352ELm37ELm18444473444759240704ELm43ELm6364136223846793005EEEC2EOS2_(ptr noundef nonnull align 8 dereferenceable(2504) @_ZZN4absl18container_internal13hash_internal12GetSharedRngEvE3rng, ptr noundef nonnull align 8 dereferenceable(2504) %1)
          to label %12 unwind label %15

12:                                               ; preds = %11
  call void @llvm.lifetime.end.p0(i64 1, ptr %2) #1
  call void @llvm.lifetime.end.p0(i64 2504, ptr %1) #1
  call void @__cxa_guard_release(ptr @_ZGVZN4absl18container_internal13hash_internal12GetSharedRngEvE3rng) #1
  br label %13

13:                                               ; preds = %12, %7, %0
  %14 = call noundef ptr @_ZN4absl12NoDestructorISt23mersenne_twister_engineImLm64ELm312ELm156ELm31ELm13043109905998158313ELm29ELm6148914691236517205ELm17ELm8202884508482404352ELm37ELm18444473444759240704ELm43ELm6364136223846793005EEE3getEv(ptr noundef nonnull align 8 dereferenceable(2504) @_ZZN4absl18container_internal13hash_internal12GetSharedRngEvE3rng)
  ret ptr %14

15:                                               ; preds = %11, %10
  %16 = landingpad { ptr, i32 }
          cleanup
  %17 = extractvalue { ptr, i32 } %16, 0
  store ptr %17, ptr %3, align 8
  %18 = extractvalue { ptr, i32 } %16, 1
  store i32 %18, ptr %4, align 4
  call void @llvm.lifetime.end.p0(i64 1, ptr %2) #1
  call void @llvm.lifetime.end.p0(i64 2504, ptr %1) #1
  call void @__cxa_guard_abort(ptr @_ZGVZN4absl18container_internal13hash_internal12GetSharedRngEvE3rng) #1
  br label %19

19:                                               ; preds = %15
  %20 = load ptr, ptr %3, align 8
  %21 = load i32, ptr %4, align 4
  %22 = insertvalue { ptr, i32 } poison, ptr %20, 0
  %23 = insertvalue { ptr, i32 } %22, i32 %21, 1
  resume { ptr, i32 } %23
}