; Function Attrs: mustprogress uwtable
define dso_local noundef nonnull ptr @_ZN4absl18container_internal13hash_internal12GetSharedRngEv() local_unnamed_addr #0 personality ptr @__gxx_personality_v0 {
  %1 = alloca %"class.std::mersenne_twister_engine", align 8
  %2 = load atomic i8, ptr @_ZGVZN4absl18container_internal13hash_internal12GetSharedRngEvE3rng acquire, align 8
  %3 = icmp eq i8 %2, 0
  br i1 %3, label %4, label %8, !prof !4

4:                                                ; preds = %0
  %5 = tail call i32 @__cxa_guard_acquire(ptr nonnull @_ZGVZN4absl18container_internal13hash_internal12GetSharedRngEvE3rng) #14
  %.not = icmp eq i32 %5, 0
  br i1 %.not, label %8, label %6

6:                                                ; preds = %4
  call void @llvm.lifetime.start.p0(i64 2504, ptr nonnull %1) #14
  invoke fastcc void @"_ZZN4absl18container_internal13hash_internal12GetSharedRngEvENK3$_0clEv"(ptr dead_on_unwind noalias writable align 8 %1)
          to label %7 unwind label %9

7:                                                ; preds = %6
  call void @llvm.memcpy.p0.p0.i64(ptr noundef nonnull align 8 dereferenceable(2504) @_ZZN4absl18container_internal13hash_internal12GetSharedRngEvE3rng, ptr noundef nonnull align 8 dereferenceable(2504) %1, i64 2504, i1 false), !tbaa.struct !5
  call void @llvm.lifetime.end.p0(i64 2504, ptr nonnull %1) #14
  tail call void @__cxa_guard_release(ptr nonnull @_ZGVZN4absl18container_internal13hash_internal12GetSharedRngEvE3rng) #14
  br label %8

8:                                                ; preds = %7, %4, %0
  ret ptr @_ZZN4absl18container_internal13hash_internal12GetSharedRngEvE3rng

9:                                                ; preds = %6
  %10 = landingpad { ptr, i32 }
          cleanup
  call void @llvm.lifetime.end.p0(i64 2504, ptr nonnull %1) #14
  tail call void @__cxa_guard_abort(ptr nonnull @_ZGVZN4absl18container_internal13hash_internal12GetSharedRngEvE3rng) #14
  resume { ptr, i32 } %10
}